;--------------------------------------------------------
; File Created by SDCC : free open source ISO C Compiler 
; Version 4.2.2 #13350 (MINGW64)
;--------------------------------------------------------
	.module main
	.optsdcc -msm83
	
;--------------------------------------------------------
; Public variables in this module
;--------------------------------------------------------
	.globl _main
	.globl _performanceDelay
	.globl _set_sprite_data
	.globl _set_bkg_tiles
	.globl _set_bkg_data
	.globl _wait_vbl_done
	.globl _keyboarddata
	.globl _keyboardmap
	.globl _cursor
	.globl _sprites
;--------------------------------------------------------
; special function registers
;--------------------------------------------------------
;--------------------------------------------------------
; ram data
;--------------------------------------------------------
	.area _DATA
_cursor::
	.ds 4
;--------------------------------------------------------
; ram data
;--------------------------------------------------------
	.area _INITIALIZED
_keyboardmap::
	.ds 360
_keyboarddata::
	.ds 720
;--------------------------------------------------------
; absolute external ram data
;--------------------------------------------------------
	.area _DABS (ABS)
;--------------------------------------------------------
; global & static initialisations
;--------------------------------------------------------
	.area _HOME
	.area _GSINIT
	.area _GSFINAL
	.area _GSINIT
;--------------------------------------------------------
; Home
;--------------------------------------------------------
	.area _HOME
	.area _HOME
;--------------------------------------------------------
; code
;--------------------------------------------------------
	.area _CODE
;main.c:10: void performanceDelay(UINT8 numloops){
;	---------------------------------
; Function performanceDelay
; ---------------------------------
_performanceDelay::
	ld	c, a
;main.c:12: for(i = 0; i < numloops; i++){
	ld	b, #0x00
00103$:
	ld	a, b
	sub	a, c
	ret	NC
;main.c:13: wait_vbl_done();
	call	_wait_vbl_done
;main.c:12: for(i = 0; i < numloops; i++){
	inc	b
;main.c:15: }
	jr	00103$
_sprites:
	.db #0xdb	; 219
	.db #0x00	; 0
	.db #0x81	; 129
	.db #0x00	; 0
	.db #0x00	; 0
	.db #0x00	; 0
	.db #0x81	; 129
	.db #0x00	; 0
	.db #0x81	; 129
	.db #0x00	; 0
	.db #0x00	; 0
	.db #0x00	; 0
	.db #0x81	; 129
	.db #0x00	; 0
	.db #0xdb	; 219
	.db #0x00	; 0
;main.c:17: void main(){
;	---------------------------------
; Function main
; ---------------------------------
_main::
;main.c:19: set_sprite_data(0, 1, sprites);
	ld	de, #_sprites
	push	de
	xor	a, a
	inc	a
	push	af
	call	_set_sprite_data
	add	sp, #4
;D:/Enviromental-Variables/gbdk/include/gb/gb.h:1602: shadow_OAM[nb].tile=tile;
	ld	hl, #(_shadow_OAM + 2)
	ld	(hl), #0x00
;main.c:22: cursor.x = 12;
	ld	hl, #_cursor
	ld	(hl), #0x0c
;main.c:23: cursor.y = 8;
	ld	bc, #_cursor + 1
	ld	a, #0x08
	ld	(bc), a
;main.c:24: cursor.col = 0;
	ld	hl, #(_cursor + 2)
	ld	(hl), #0x00
;main.c:25: cursor.row = 0;
	ld	hl, #(_cursor + 3)
	ld	(hl), #0x00
;main.c:27: move_sprite(0, cursor.x, cursor.y);
	ld	a, (bc)
	ld	c, a
	ld	hl, #_cursor
	ld	b, (hl)
;D:/Enviromental-Variables/gbdk/include/gb/gb.h:1675: OAM_item_t * itm = &shadow_OAM[nb];
	ld	hl, #_shadow_OAM
;D:/Enviromental-Variables/gbdk/include/gb/gb.h:1676: itm->y=y, itm->x=x;
	ld	a, c
	ld	(hl+), a
	ld	(hl), b
;main.c:29: set_bkg_data(0, 45, keyboarddata);
	ld	de, #_keyboarddata
	push	de
	ld	hl, #0x2d00
	push	hl
	call	_set_bkg_data
	add	sp, #4
;main.c:30: set_bkg_tiles(0, 0, 20, 18, keyboardmap);
	ld	de, #_keyboardmap
	push	de
	ld	hl, #0x1214
	push	hl
	xor	a, a
	rrca
	push	af
	call	_set_bkg_tiles
	add	sp, #6
;D:/Enviromental-Variables/gbdk/include/gb/gb.h:1222: SCX_REG+=x, SCY_REG+=y;
	ldh	a, (_SCX_REG + 0)
	add	a, #0xfc
	ldh	(_SCX_REG + 0), a
;main.c:33: SHOW_BKG;
	ldh	a, (_LCDC_REG + 0)
	or	a, #0x01
	ldh	(_LCDC_REG + 0), a
;main.c:34: SHOW_SPRITES;
	ldh	a, (_LCDC_REG + 0)
	or	a, #0x02
	ldh	(_LCDC_REG + 0), a
;main.c:35: DISPLAY_ON;
	ldh	a, (_LCDC_REG + 0)
	or	a, #0x80
	ldh	(_LCDC_REG + 0), a
;main.c:38: }
	ret
	.area _CODE
	.area _INITIALIZER
__xinit__keyboardmap:
	.db #0x00	; 0
	.db #0x00	; 0
	.db #0x00	; 0
	.db #0x00	; 0
	.db #0x00	; 0
	.db #0x00	; 0
	.db #0x00	; 0
	.db #0x00	; 0
	.db #0x00	; 0
	.db #0x00	; 0
	.db #0x00	; 0
	.db #0x00	; 0
	.db #0x00	; 0
	.db #0x00	; 0
	.db #0x00	; 0
	.db #0x00	; 0
	.db #0x00	; 0
	.db #0x00	; 0
	.db #0x00	; 0
	.db #0x00	; 0
	.db #0x00	; 0
	.db #0x19	; 25
	.db #0x0f	; 15
	.db #0x15	; 21
	.db #0x12	; 18
	.db #0x00	; 0
	.db #0x0e	; 14
	.db #0x01	; 1
	.db #0x0d	; 13
	.db #0x05	; 5
	.db #0x29	; 41
	.db #0x00	; 0
	.db #0x00	; 0
	.db #0x00	; 0
	.db #0x00	; 0
	.db #0x00	; 0
	.db #0x00	; 0
	.db #0x00	; 0
	.db #0x00	; 0
	.db #0x00	; 0
	.db #0x00	; 0
	.db #0x00	; 0
	.db #0x00	; 0
	.db #0x00	; 0
	.db #0x00	; 0
	.db #0x00	; 0
	.db #0x00	; 0
	.db #0x00	; 0
	.db #0x00	; 0
	.db #0x00	; 0
	.db #0x00	; 0
	.db #0x00	; 0
	.db #0x00	; 0
	.db #0x00	; 0
	.db #0x00	; 0
	.db #0x00	; 0
	.db #0x00	; 0
	.db #0x00	; 0
	.db #0x00	; 0
	.db #0x00	; 0
	.db #0x00	; 0
	.db #0x00	; 0
	.db #0x00	; 0
	.db #0x00	; 0
	.db #0x00	; 0
	.db #0x00	; 0
	.db #0x00	; 0
	.db #0x00	; 0
	.db #0x00	; 0
	.db #0x00	; 0
	.db #0x00	; 0
	.db #0x00	; 0
	.db #0x00	; 0
	.db #0x00	; 0
	.db #0x00	; 0
	.db #0x00	; 0
	.db #0x00	; 0
	.db #0x00	; 0
	.db #0x00	; 0
	.db #0x00	; 0
	.db #0x00	; 0
	.db #0x00	; 0
	.db #0x00	; 0
	.db #0x00	; 0
	.db #0x00	; 0
	.db #0x00	; 0
	.db #0x00	; 0
	.db #0x00	; 0
	.db #0x00	; 0
	.db #0x00	; 0
	.db #0x00	; 0
	.db #0x00	; 0
	.db #0x00	; 0
	.db #0x00	; 0
	.db #0x00	; 0
	.db #0x00	; 0
	.db #0x00	; 0
	.db #0x00	; 0
	.db #0x00	; 0
	.db #0x00	; 0
	.db #0x00	; 0
	.db #0x00	; 0
	.db #0x00	; 0
	.db #0x00	; 0
	.db #0x00	; 0
	.db #0x00	; 0
	.db #0x00	; 0
	.db #0x00	; 0
	.db #0x00	; 0
	.db #0x00	; 0
	.db #0x00	; 0
	.db #0x00	; 0
	.db #0x00	; 0
	.db #0x00	; 0
	.db #0x00	; 0
	.db #0x00	; 0
	.db #0x00	; 0
	.db #0x00	; 0
	.db #0x00	; 0
	.db #0x00	; 0
	.db #0x2a	; 42
	.db #0x2a	; 42
	.db #0x2a	; 42
	.db #0x2a	; 42
	.db #0x2a	; 42
	.db #0x2a	; 42
	.db #0x2a	; 42
	.db #0x2a	; 42
	.db #0x2a	; 42
	.db #0x2a	; 42
	.db #0x2a	; 42
	.db #0x2a	; 42
	.db #0x2a	; 42
	.db #0x2a	; 42
	.db #0x2a	; 42
	.db #0x2a	; 42
	.db #0x2a	; 42
	.db #0x2a	; 42
	.db #0x2a	; 42
	.db #0x00	; 0
	.db #0x00	; 0
	.db #0x00	; 0
	.db #0x00	; 0
	.db #0x00	; 0
	.db #0x00	; 0
	.db #0x00	; 0
	.db #0x00	; 0
	.db #0x00	; 0
	.db #0x00	; 0
	.db #0x00	; 0
	.db #0x00	; 0
	.db #0x00	; 0
	.db #0x00	; 0
	.db #0x00	; 0
	.db #0x00	; 0
	.db #0x00	; 0
	.db #0x00	; 0
	.db #0x00	; 0
	.db #0x00	; 0
	.db #0x00	; 0
	.db #0x01	; 1
	.db #0x00	; 0
	.db #0x02	; 2
	.db #0x00	; 0
	.db #0x03	; 3
	.db #0x00	; 0
	.db #0x04	; 4
	.db #0x00	; 0
	.db #0x05	; 5
	.db #0x00	; 0
	.db #0x06	; 6
	.db #0x00	; 0
	.db #0x07	; 7
	.db #0x00	; 0
	.db #0x08	; 8
	.db #0x00	; 0
	.db #0x09	; 9
	.db #0x00	; 0
	.db #0x0a	; 10
	.db #0x00	; 0
	.db #0x00	; 0
	.db #0x00	; 0
	.db #0x00	; 0
	.db #0x00	; 0
	.db #0x00	; 0
	.db #0x00	; 0
	.db #0x00	; 0
	.db #0x00	; 0
	.db #0x00	; 0
	.db #0x00	; 0
	.db #0x00	; 0
	.db #0x00	; 0
	.db #0x00	; 0
	.db #0x00	; 0
	.db #0x00	; 0
	.db #0x00	; 0
	.db #0x00	; 0
	.db #0x00	; 0
	.db #0x00	; 0
	.db #0x00	; 0
	.db #0x0b	; 11
	.db #0x00	; 0
	.db #0x0c	; 12
	.db #0x00	; 0
	.db #0x0d	; 13
	.db #0x00	; 0
	.db #0x0e	; 14
	.db #0x00	; 0
	.db #0x0f	; 15
	.db #0x00	; 0
	.db #0x10	; 16
	.db #0x00	; 0
	.db #0x11	; 17
	.db #0x00	; 0
	.db #0x12	; 18
	.db #0x00	; 0
	.db #0x13	; 19
	.db #0x00	; 0
	.db #0x14	; 20
	.db #0x00	; 0
	.db #0x00	; 0
	.db #0x00	; 0
	.db #0x00	; 0
	.db #0x00	; 0
	.db #0x00	; 0
	.db #0x00	; 0
	.db #0x00	; 0
	.db #0x00	; 0
	.db #0x00	; 0
	.db #0x00	; 0
	.db #0x00	; 0
	.db #0x00	; 0
	.db #0x00	; 0
	.db #0x00	; 0
	.db #0x00	; 0
	.db #0x00	; 0
	.db #0x00	; 0
	.db #0x00	; 0
	.db #0x00	; 0
	.db #0x00	; 0
	.db #0x15	; 21
	.db #0x00	; 0
	.db #0x16	; 22
	.db #0x00	; 0
	.db #0x17	; 23
	.db #0x00	; 0
	.db #0x18	; 24
	.db #0x00	; 0
	.db #0x19	; 25
	.db #0x00	; 0
	.db #0x1a	; 26
	.db #0x00	; 0
	.db #0x1b	; 27
	.db #0x00	; 0
	.db #0x1c	; 28
	.db #0x00	; 0
	.db #0x1d	; 29
	.db #0x00	; 0
	.db #0x00	; 0
	.db #0x00	; 0
	.db #0x00	; 0
	.db #0x00	; 0
	.db #0x00	; 0
	.db #0x00	; 0
	.db #0x00	; 0
	.db #0x00	; 0
	.db #0x00	; 0
	.db #0x00	; 0
	.db #0x00	; 0
	.db #0x00	; 0
	.db #0x00	; 0
	.db #0x00	; 0
	.db #0x00	; 0
	.db #0x00	; 0
	.db #0x00	; 0
	.db #0x00	; 0
	.db #0x00	; 0
	.db #0x00	; 0
	.db #0x00	; 0
	.db #0x00	; 0
	.db #0x1f	; 31
	.db #0x00	; 0
	.db #0x20	; 32
	.db #0x00	; 0
	.db #0x21	; 33
	.db #0x00	; 0
	.db #0x22	; 34
	.db #0x00	; 0
	.db #0x23	; 35
	.db #0x00	; 0
	.db #0x24	; 36
	.db #0x00	; 0
	.db #0x25	; 37
	.db #0x00	; 0
	.db #0x26	; 38
	.db #0x00	; 0
	.db #0x27	; 39
	.db #0x00	; 0
	.db #0x28	; 40
	.db #0x00	; 0
	.db #0x00	; 0
	.db #0x00	; 0
	.db #0x00	; 0
	.db #0x00	; 0
	.db #0x00	; 0
	.db #0x00	; 0
	.db #0x00	; 0
	.db #0x00	; 0
	.db #0x00	; 0
	.db #0x00	; 0
	.db #0x00	; 0
	.db #0x00	; 0
	.db #0x00	; 0
	.db #0x00	; 0
	.db #0x00	; 0
	.db #0x00	; 0
	.db #0x00	; 0
	.db #0x00	; 0
	.db #0x00	; 0
	.db #0x00	; 0
	.db #0x00	; 0
	.db #0x00	; 0
	.db #0x00	; 0
	.db #0x00	; 0
	.db #0x00	; 0
	.db #0x00	; 0
	.db #0x00	; 0
	.db #0x00	; 0
	.db #0x00	; 0
	.db #0x00	; 0
	.db #0x00	; 0
	.db #0x00	; 0
	.db #0x00	; 0
	.db #0x00	; 0
	.db #0x00	; 0
	.db #0x00	; 0
	.db #0x2b	; 43
	.db #0x00	; 0
	.db #0x2c	; 44
	.db #0x00	; 0
	.db #0x00	; 0
	.db #0x00	; 0
	.db #0x00	; 0
	.db #0x00	; 0
	.db #0x00	; 0
	.db #0x00	; 0
	.db #0x00	; 0
	.db #0x00	; 0
	.db #0x00	; 0
	.db #0x00	; 0
	.db #0x00	; 0
	.db #0x00	; 0
	.db #0x00	; 0
	.db #0x00	; 0
	.db #0x00	; 0
	.db #0x00	; 0
	.db #0x00	; 0
	.db #0x00	; 0
	.db #0x00	; 0
	.db #0x00	; 0
__xinit__keyboarddata:
	.db #0xff	; 255
	.db #0xff	; 255
	.db #0xff	; 255
	.db #0xff	; 255
	.db #0xff	; 255
	.db #0xff	; 255
	.db #0xff	; 255
	.db #0xff	; 255
	.db #0xff	; 255
	.db #0xff	; 255
	.db #0xff	; 255
	.db #0xff	; 255
	.db #0xff	; 255
	.db #0xff	; 255
	.db #0xff	; 255
	.db #0xff	; 255
	.db #0xc7	; 199
	.db #0xc7	; 199
	.db #0x93	; 147
	.db #0x93	; 147
	.db #0x39	; 57	'9'
	.db #0x39	; 57	'9'
	.db #0x39	; 57	'9'
	.db #0x39	; 57	'9'
	.db #0x01	; 1
	.db #0x01	; 1
	.db #0x39	; 57	'9'
	.db #0x39	; 57	'9'
	.db #0x39	; 57	'9'
	.db #0x39	; 57	'9'
	.db #0xff	; 255
	.db #0xff	; 255
	.db #0x03	; 3
	.db #0x03	; 3
	.db #0x39	; 57	'9'
	.db #0x39	; 57	'9'
	.db #0x39	; 57	'9'
	.db #0x39	; 57	'9'
	.db #0x03	; 3
	.db #0x03	; 3
	.db #0x39	; 57	'9'
	.db #0x39	; 57	'9'
	.db #0x39	; 57	'9'
	.db #0x39	; 57	'9'
	.db #0x03	; 3
	.db #0x03	; 3
	.db #0xff	; 255
	.db #0xff	; 255
	.db #0xc3	; 195
	.db #0xc3	; 195
	.db #0x99	; 153
	.db #0x99	; 153
	.db #0x3f	; 63
	.db #0x3f	; 63
	.db #0x3f	; 63
	.db #0x3f	; 63
	.db #0x3f	; 63
	.db #0x3f	; 63
	.db #0x99	; 153
	.db #0x99	; 153
	.db #0xc3	; 195
	.db #0xc3	; 195
	.db #0xff	; 255
	.db #0xff	; 255
	.db #0x07	; 7
	.db #0x07	; 7
	.db #0x33	; 51	'3'
	.db #0x33	; 51	'3'
	.db #0x39	; 57	'9'
	.db #0x39	; 57	'9'
	.db #0x39	; 57	'9'
	.db #0x39	; 57	'9'
	.db #0x39	; 57	'9'
	.db #0x39	; 57	'9'
	.db #0x33	; 51	'3'
	.db #0x33	; 51	'3'
	.db #0x07	; 7
	.db #0x07	; 7
	.db #0xff	; 255
	.db #0xff	; 255
	.db #0x01	; 1
	.db #0x01	; 1
	.db #0x3f	; 63
	.db #0x3f	; 63
	.db #0x3f	; 63
	.db #0x3f	; 63
	.db #0x03	; 3
	.db #0x03	; 3
	.db #0x3f	; 63
	.db #0x3f	; 63
	.db #0x3f	; 63
	.db #0x3f	; 63
	.db #0x01	; 1
	.db #0x01	; 1
	.db #0xff	; 255
	.db #0xff	; 255
	.db #0x01	; 1
	.db #0x01	; 1
	.db #0x3f	; 63
	.db #0x3f	; 63
	.db #0x3f	; 63
	.db #0x3f	; 63
	.db #0x03	; 3
	.db #0x03	; 3
	.db #0x3f	; 63
	.db #0x3f	; 63
	.db #0x3f	; 63
	.db #0x3f	; 63
	.db #0x3f	; 63
	.db #0x3f	; 63
	.db #0xff	; 255
	.db #0xff	; 255
	.db #0xc1	; 193
	.db #0xc1	; 193
	.db #0x9f	; 159
	.db #0x9f	; 159
	.db #0x3f	; 63
	.db #0x3f	; 63
	.db #0x31	; 49	'1'
	.db #0x31	; 49	'1'
	.db #0x39	; 57	'9'
	.db #0x39	; 57	'9'
	.db #0x99	; 153
	.db #0x99	; 153
	.db #0xc1	; 193
	.db #0xc1	; 193
	.db #0xff	; 255
	.db #0xff	; 255
	.db #0x39	; 57	'9'
	.db #0x39	; 57	'9'
	.db #0x39	; 57	'9'
	.db #0x39	; 57	'9'
	.db #0x39	; 57	'9'
	.db #0x39	; 57	'9'
	.db #0x01	; 1
	.db #0x01	; 1
	.db #0x39	; 57	'9'
	.db #0x39	; 57	'9'
	.db #0x39	; 57	'9'
	.db #0x39	; 57	'9'
	.db #0x39	; 57	'9'
	.db #0x39	; 57	'9'
	.db #0xff	; 255
	.db #0xff	; 255
	.db #0x81	; 129
	.db #0x81	; 129
	.db #0xe7	; 231
	.db #0xe7	; 231
	.db #0xe7	; 231
	.db #0xe7	; 231
	.db #0xe7	; 231
	.db #0xe7	; 231
	.db #0xe7	; 231
	.db #0xe7	; 231
	.db #0xe7	; 231
	.db #0xe7	; 231
	.db #0x81	; 129
	.db #0x81	; 129
	.db #0xff	; 255
	.db #0xff	; 255
	.db #0xe1	; 225
	.db #0xe1	; 225
	.db #0xf9	; 249
	.db #0xf9	; 249
	.db #0xf9	; 249
	.db #0xf9	; 249
	.db #0xf9	; 249
	.db #0xf9	; 249
	.db #0x39	; 57	'9'
	.db #0x39	; 57	'9'
	.db #0x39	; 57	'9'
	.db #0x39	; 57	'9'
	.db #0x83	; 131
	.db #0x83	; 131
	.db #0xff	; 255
	.db #0xff	; 255
	.db #0x39	; 57	'9'
	.db #0x39	; 57	'9'
	.db #0x33	; 51	'3'
	.db #0x33	; 51	'3'
	.db #0x27	; 39
	.db #0x27	; 39
	.db #0x0f	; 15
	.db #0x0f	; 15
	.db #0x07	; 7
	.db #0x07	; 7
	.db #0x23	; 35
	.db #0x23	; 35
	.db #0x31	; 49	'1'
	.db #0x31	; 49	'1'
	.db #0xff	; 255
	.db #0xff	; 255
	.db #0x9f	; 159
	.db #0x9f	; 159
	.db #0x9f	; 159
	.db #0x9f	; 159
	.db #0x9f	; 159
	.db #0x9f	; 159
	.db #0x9f	; 159
	.db #0x9f	; 159
	.db #0x9f	; 159
	.db #0x9f	; 159
	.db #0x9f	; 159
	.db #0x9f	; 159
	.db #0x81	; 129
	.db #0x81	; 129
	.db #0xff	; 255
	.db #0xff	; 255
	.db #0x39	; 57	'9'
	.db #0x39	; 57	'9'
	.db #0x11	; 17
	.db #0x11	; 17
	.db #0x01	; 1
	.db #0x01	; 1
	.db #0x01	; 1
	.db #0x01	; 1
	.db #0x29	; 41
	.db #0x29	; 41
	.db #0x39	; 57	'9'
	.db #0x39	; 57	'9'
	.db #0x39	; 57	'9'
	.db #0x39	; 57	'9'
	.db #0xff	; 255
	.db #0xff	; 255
	.db #0x39	; 57	'9'
	.db #0x39	; 57	'9'
	.db #0x19	; 25
	.db #0x19	; 25
	.db #0x09	; 9
	.db #0x09	; 9
	.db #0x01	; 1
	.db #0x01	; 1
	.db #0x21	; 33
	.db #0x21	; 33
	.db #0x31	; 49	'1'
	.db #0x31	; 49	'1'
	.db #0x39	; 57	'9'
	.db #0x39	; 57	'9'
	.db #0xff	; 255
	.db #0xff	; 255
	.db #0x83	; 131
	.db #0x83	; 131
	.db #0x39	; 57	'9'
	.db #0x39	; 57	'9'
	.db #0x39	; 57	'9'
	.db #0x39	; 57	'9'
	.db #0x39	; 57	'9'
	.db #0x39	; 57	'9'
	.db #0x39	; 57	'9'
	.db #0x39	; 57	'9'
	.db #0x39	; 57	'9'
	.db #0x39	; 57	'9'
	.db #0x83	; 131
	.db #0x83	; 131
	.db #0xff	; 255
	.db #0xff	; 255
	.db #0x03	; 3
	.db #0x03	; 3
	.db #0x39	; 57	'9'
	.db #0x39	; 57	'9'
	.db #0x39	; 57	'9'
	.db #0x39	; 57	'9'
	.db #0x39	; 57	'9'
	.db #0x39	; 57	'9'
	.db #0x03	; 3
	.db #0x03	; 3
	.db #0x3f	; 63
	.db #0x3f	; 63
	.db #0x3f	; 63
	.db #0x3f	; 63
	.db #0xff	; 255
	.db #0xff	; 255
	.db #0x83	; 131
	.db #0x83	; 131
	.db #0x39	; 57	'9'
	.db #0x39	; 57	'9'
	.db #0x39	; 57	'9'
	.db #0x39	; 57	'9'
	.db #0x39	; 57	'9'
	.db #0x39	; 57	'9'
	.db #0x21	; 33
	.db #0x21	; 33
	.db #0x33	; 51	'3'
	.db #0x33	; 51	'3'
	.db #0x85	; 133
	.db #0x85	; 133
	.db #0xff	; 255
	.db #0xff	; 255
	.db #0x03	; 3
	.db #0x03	; 3
	.db #0x39	; 57	'9'
	.db #0x39	; 57	'9'
	.db #0x39	; 57	'9'
	.db #0x39	; 57	'9'
	.db #0x31	; 49	'1'
	.db #0x31	; 49	'1'
	.db #0x07	; 7
	.db #0x07	; 7
	.db #0x23	; 35
	.db #0x23	; 35
	.db #0x31	; 49	'1'
	.db #0x31	; 49	'1'
	.db #0xff	; 255
	.db #0xff	; 255
	.db #0x87	; 135
	.db #0x87	; 135
	.db #0x33	; 51	'3'
	.db #0x33	; 51	'3'
	.db #0x3f	; 63
	.db #0x3f	; 63
	.db #0x83	; 131
	.db #0x83	; 131
	.db #0xf9	; 249
	.db #0xf9	; 249
	.db #0x39	; 57	'9'
	.db #0x39	; 57	'9'
	.db #0x83	; 131
	.db #0x83	; 131
	.db #0xff	; 255
	.db #0xff	; 255
	.db #0x81	; 129
	.db #0x81	; 129
	.db #0xe7	; 231
	.db #0xe7	; 231
	.db #0xe7	; 231
	.db #0xe7	; 231
	.db #0xe7	; 231
	.db #0xe7	; 231
	.db #0xe7	; 231
	.db #0xe7	; 231
	.db #0xe7	; 231
	.db #0xe7	; 231
	.db #0xe7	; 231
	.db #0xe7	; 231
	.db #0xff	; 255
	.db #0xff	; 255
	.db #0x39	; 57	'9'
	.db #0x39	; 57	'9'
	.db #0x39	; 57	'9'
	.db #0x39	; 57	'9'
	.db #0x39	; 57	'9'
	.db #0x39	; 57	'9'
	.db #0x39	; 57	'9'
	.db #0x39	; 57	'9'
	.db #0x39	; 57	'9'
	.db #0x39	; 57	'9'
	.db #0x39	; 57	'9'
	.db #0x39	; 57	'9'
	.db #0x83	; 131
	.db #0x83	; 131
	.db #0xff	; 255
	.db #0xff	; 255
	.db #0x39	; 57	'9'
	.db #0x39	; 57	'9'
	.db #0x39	; 57	'9'
	.db #0x39	; 57	'9'
	.db #0x39	; 57	'9'
	.db #0x39	; 57	'9'
	.db #0x11	; 17
	.db #0x11	; 17
	.db #0x83	; 131
	.db #0x83	; 131
	.db #0xc7	; 199
	.db #0xc7	; 199
	.db #0xef	; 239
	.db #0xef	; 239
	.db #0xff	; 255
	.db #0xff	; 255
	.db #0x39	; 57	'9'
	.db #0x39	; 57	'9'
	.db #0x39	; 57	'9'
	.db #0x39	; 57	'9'
	.db #0x29	; 41
	.db #0x29	; 41
	.db #0x01	; 1
	.db #0x01	; 1
	.db #0x01	; 1
	.db #0x01	; 1
	.db #0x11	; 17
	.db #0x11	; 17
	.db #0x39	; 57	'9'
	.db #0x39	; 57	'9'
	.db #0xff	; 255
	.db #0xff	; 255
	.db #0x39	; 57	'9'
	.db #0x39	; 57	'9'
	.db #0x11	; 17
	.db #0x11	; 17
	.db #0x83	; 131
	.db #0x83	; 131
	.db #0xc7	; 199
	.db #0xc7	; 199
	.db #0x83	; 131
	.db #0x83	; 131
	.db #0x11	; 17
	.db #0x11	; 17
	.db #0x39	; 57	'9'
	.db #0x39	; 57	'9'
	.db #0xff	; 255
	.db #0xff	; 255
	.db #0x99	; 153
	.db #0x99	; 153
	.db #0x99	; 153
	.db #0x99	; 153
	.db #0x99	; 153
	.db #0x99	; 153
	.db #0xc3	; 195
	.db #0xc3	; 195
	.db #0xe7	; 231
	.db #0xe7	; 231
	.db #0xe7	; 231
	.db #0xe7	; 231
	.db #0xe7	; 231
	.db #0xe7	; 231
	.db #0xff	; 255
	.db #0xff	; 255
	.db #0x01	; 1
	.db #0x01	; 1
	.db #0xf1	; 241
	.db #0xf1	; 241
	.db #0xe3	; 227
	.db #0xe3	; 227
	.db #0xc7	; 199
	.db #0xc7	; 199
	.db #0x8f	; 143
	.db #0x8f	; 143
	.db #0x1f	; 31
	.db #0x1f	; 31
	.db #0x01	; 1
	.db #0x01	; 1
	.db #0xff	; 255
	.db #0xff	; 255
	.db #0xff	; 255
	.db #0xff	; 255
	.db #0xff	; 255
	.db #0xff	; 255
	.db #0xff	; 255
	.db #0xff	; 255
	.db #0xff	; 255
	.db #0xff	; 255
	.db #0xff	; 255
	.db #0xff	; 255
	.db #0xcf	; 207
	.db #0xcf	; 207
	.db #0xcf	; 207
	.db #0xcf	; 207
	.db #0xff	; 255
	.db #0xff	; 255
	.db #0xcf	; 207
	.db #0xcf	; 207
	.db #0xcf	; 207
	.db #0xcf	; 207
	.db #0xef	; 239
	.db #0xef	; 239
	.db #0xdf	; 223
	.db #0xdf	; 223
	.db #0xff	; 255
	.db #0xff	; 255
	.db #0xff	; 255
	.db #0xff	; 255
	.db #0xff	; 255
	.db #0xff	; 255
	.db #0xff	; 255
	.db #0xff	; 255
	.db #0xff	; 255
	.db #0xff	; 255
	.db #0xff	; 255
	.db #0xff	; 255
	.db #0xff	; 255
	.db #0xff	; 255
	.db #0x81	; 129
	.db #0x81	; 129
	.db #0x81	; 129
	.db #0x81	; 129
	.db #0xff	; 255
	.db #0xff	; 255
	.db #0xff	; 255
	.db #0xff	; 255
	.db #0xff	; 255
	.db #0xff	; 255
	.db #0xff	; 255
	.db #0xff	; 255
	.db #0xff	; 255
	.db #0xff	; 255
	.db #0xff	; 255
	.db #0xff	; 255
	.db #0xff	; 255
	.db #0xff	; 255
	.db #0xff	; 255
	.db #0xff	; 255
	.db #0xff	; 255
	.db #0xff	; 255
	.db #0xff	; 255
	.db #0xff	; 255
	.db #0xff	; 255
	.db #0xff	; 255
	.db #0xc7	; 199
	.db #0xc7	; 199
	.db #0xb3	; 179
	.db #0xb3	; 179
	.db #0x39	; 57	'9'
	.db #0x39	; 57	'9'
	.db #0x39	; 57	'9'
	.db #0x39	; 57	'9'
	.db #0x39	; 57	'9'
	.db #0x39	; 57	'9'
	.db #0x9b	; 155
	.db #0x9b	; 155
	.db #0xc7	; 199
	.db #0xc7	; 199
	.db #0xff	; 255
	.db #0xff	; 255
	.db #0xe7	; 231
	.db #0xe7	; 231
	.db #0xc7	; 199
	.db #0xc7	; 199
	.db #0xe7	; 231
	.db #0xe7	; 231
	.db #0xe7	; 231
	.db #0xe7	; 231
	.db #0xe7	; 231
	.db #0xe7	; 231
	.db #0xe7	; 231
	.db #0xe7	; 231
	.db #0x81	; 129
	.db #0x81	; 129
	.db #0xff	; 255
	.db #0xff	; 255
	.db #0x83	; 131
	.db #0x83	; 131
	.db #0x39	; 57	'9'
	.db #0x39	; 57	'9'
	.db #0xf1	; 241
	.db #0xf1	; 241
	.db #0xc3	; 195
	.db #0xc3	; 195
	.db #0x87	; 135
	.db #0x87	; 135
	.db #0x1f	; 31
	.db #0x1f	; 31
	.db #0x01	; 1
	.db #0x01	; 1
	.db #0xff	; 255
	.db #0xff	; 255
	.db #0x81	; 129
	.db #0x81	; 129
	.db #0xf3	; 243
	.db #0xf3	; 243
	.db #0xe7	; 231
	.db #0xe7	; 231
	.db #0xc3	; 195
	.db #0xc3	; 195
	.db #0xf9	; 249
	.db #0xf9	; 249
	.db #0x39	; 57	'9'
	.db #0x39	; 57	'9'
	.db #0x83	; 131
	.db #0x83	; 131
	.db #0xff	; 255
	.db #0xff	; 255
	.db #0xe3	; 227
	.db #0xe3	; 227
	.db #0xc3	; 195
	.db #0xc3	; 195
	.db #0x93	; 147
	.db #0x93	; 147
	.db #0x33	; 51	'3'
	.db #0x33	; 51	'3'
	.db #0x01	; 1
	.db #0x01	; 1
	.db #0xf3	; 243
	.db #0xf3	; 243
	.db #0xf3	; 243
	.db #0xf3	; 243
	.db #0xff	; 255
	.db #0xff	; 255
	.db #0x03	; 3
	.db #0x03	; 3
	.db #0x3f	; 63
	.db #0x3f	; 63
	.db #0x03	; 3
	.db #0x03	; 3
	.db #0xf9	; 249
	.db #0xf9	; 249
	.db #0xf9	; 249
	.db #0xf9	; 249
	.db #0x39	; 57	'9'
	.db #0x39	; 57	'9'
	.db #0x83	; 131
	.db #0x83	; 131
	.db #0xff	; 255
	.db #0xff	; 255
	.db #0xc3	; 195
	.db #0xc3	; 195
	.db #0x9f	; 159
	.db #0x9f	; 159
	.db #0x3f	; 63
	.db #0x3f	; 63
	.db #0x03	; 3
	.db #0x03	; 3
	.db #0x39	; 57	'9'
	.db #0x39	; 57	'9'
	.db #0x39	; 57	'9'
	.db #0x39	; 57	'9'
	.db #0x83	; 131
	.db #0x83	; 131
	.db #0xff	; 255
	.db #0xff	; 255
	.db #0x01	; 1
	.db #0x01	; 1
	.db #0x39	; 57	'9'
	.db #0x39	; 57	'9'
	.db #0xf3	; 243
	.db #0xf3	; 243
	.db #0xe7	; 231
	.db #0xe7	; 231
	.db #0xcf	; 207
	.db #0xcf	; 207
	.db #0xcf	; 207
	.db #0xcf	; 207
	.db #0xcf	; 207
	.db #0xcf	; 207
	.db #0xff	; 255
	.db #0xff	; 255
	.db #0x83	; 131
	.db #0x83	; 131
	.db #0x39	; 57	'9'
	.db #0x39	; 57	'9'
	.db #0x39	; 57	'9'
	.db #0x39	; 57	'9'
	.db #0x83	; 131
	.db #0x83	; 131
	.db #0x39	; 57	'9'
	.db #0x39	; 57	'9'
	.db #0x39	; 57	'9'
	.db #0x39	; 57	'9'
	.db #0x83	; 131
	.db #0x83	; 131
	.db #0xff	; 255
	.db #0xff	; 255
	.db #0x83	; 131
	.db #0x83	; 131
	.db #0x39	; 57	'9'
	.db #0x39	; 57	'9'
	.db #0x39	; 57	'9'
	.db #0x39	; 57	'9'
	.db #0x81	; 129
	.db #0x81	; 129
	.db #0xf9	; 249
	.db #0xf9	; 249
	.db #0xf3	; 243
	.db #0xf3	; 243
	.db #0x87	; 135
	.db #0x87	; 135
	.db #0xff	; 255
	.db #0xff	; 255
	.db #0xe7	; 231
	.db #0xe7	; 231
	.db #0xdb	; 219
	.db #0xdb	; 219
	.db #0xfb	; 251
	.db #0xfb	; 251
	.db #0xfb	; 251
	.db #0xfb	; 251
	.db #0xf7	; 247
	.db #0xf7	; 247
	.db #0xef	; 239
	.db #0xef	; 239
	.db #0xff	; 255
	.db #0xff	; 255
	.db #0xef	; 239
	.db #0xef	; 239
	.db #0xff	; 255
	.db #0xff	; 255
	.db #0xff	; 255
	.db #0xff	; 255
	.db #0xff	; 255
	.db #0xff	; 255
	.db #0xff	; 255
	.db #0xff	; 255
	.db #0xff	; 255
	.db #0xff	; 255
	.db #0xff	; 255
	.db #0xff	; 255
	.db #0xff	; 255
	.db #0xff	; 255
	.db #0xff	; 255
	.db #0x00	; 0
	.db #0xff	; 255
	.db #0xff	; 255
	.db #0xdf	; 223
	.db #0xdf	; 223
	.db #0x9f	; 159
	.db #0x9f	; 159
	.db #0x01	; 1
	.db #0x01	; 1
	.db #0x01	; 1
	.db #0x01	; 1
	.db #0x9f	; 159
	.db #0x9f	; 159
	.db #0xdf	; 223
	.db #0xdf	; 223
	.db #0xff	; 255
	.db #0xff	; 255
	.db #0xff	; 255
	.db #0xff	; 255
	.db #0xfe	; 254
	.db #0xfe	; 254
	.db #0xfc	; 252
	.db #0xfc	; 252
	.db #0xf8	; 248
	.db #0xf8	; 248
	.db #0x31	; 49	'1'
	.db #0x31	; 49	'1'
	.db #0x03	; 3
	.db #0x03	; 3
	.db #0x87	; 135
	.db #0x87	; 135
	.db #0xcf	; 207
	.db #0xcf	; 207
	.area _CABS (ABS)
